target datalayout = "e-m:e-p270:32:32-p271:32:32-p272:64:64-i64:64-i128:128-f80:128-n8:16:32:64-S128"
target triple = "x86_64-pc-linux-gnu"

@.str = private unnamed_addr constant [32 x i8] c"../openssl/crypto/pem/pem_pk8.c\00", align 1
@__func__.d2i_PKCS8PrivateKey_bio = private unnamed_addr constant [24 x i8] c"d2i_PKCS8PrivateKey_bio\00", align 1

; Function Attrs: nounwind uwtable
define ptr @d2i_PKCS8PrivateKey_bio(ptr noundef %0, ptr noundef %1, ptr noundef %2, ptr noundef %3) #0 {
  %5 = alloca ptr, align 8
  %6 = alloca ptr, align 8
  %7 = alloca ptr, align 8
  %8 = alloca ptr, align 8
  %9 = alloca ptr, align 8
  %10 = alloca ptr, align 8
  %11 = alloca ptr, align 8
  %12 = alloca i32, align 4
  %13 = alloca ptr, align 8
  %14 = alloca [1025 x i8], align 16
  %15 = alloca i32, align 4
  store ptr %0, ptr %6, align 8, !tbaa !3
  store ptr %1, ptr %7, align 8, !tbaa !23
  store ptr %2, ptr %8, align 8, !tbaa !14
  store ptr %3, ptr %9, align 8, !tbaa !14
  call void @llvm.lifetime.start.p0(i64 8, ptr %10) #4
  store ptr null, ptr %10, align 8, !tbaa !19
  call void @llvm.lifetime.start.p0(i64 8, ptr %11) #4
  store ptr null, ptr %11, align 8, !tbaa !21
  call void @llvm.lifetime.start.p0(i64 4, ptr %12) #4
  call void @llvm.lifetime.start.p0(i64 8, ptr %13) #4
  call void @llvm.lifetime.start.p0(i64 1025, ptr %14) #4
  %16 = load ptr, ptr %6, align 8, !tbaa !3
  %17 = call ptr @d2i_PKCS8_bio(ptr noundef %16, ptr noundef null)
  store ptr %17, ptr %11, align 8, !tbaa !21
  %18 = load ptr, ptr %11, align 8, !tbaa !21
  %19 = icmp eq ptr %18, null
  br i1 %19, label %20, label %21

20:                                               ; preds = %4
  store ptr null, ptr %5, align 8
  store i32 1, ptr %15, align 4
  br label %70

21:                                               ; preds = %4
  %22 = load ptr, ptr %8, align 8, !tbaa !14
  %23 = icmp ne ptr %22, null
  br i1 %23, label %24, label %29

24:                                               ; preds = %21
  %25 = load ptr, ptr %8, align 8, !tbaa !14
  %26 = getelementptr inbounds [1025 x i8], ptr %14, i64 0, i64 0
  %27 = load ptr, ptr %9, align 8, !tbaa !14
  %28 = call i32 %25(ptr noundef %26, i32 noundef 1024, i32 noundef 0, ptr noundef %27)
  store i32 %28, ptr %12, align 4, !tbaa !10
  br label %33

29:                                               ; preds = %21
  %30 = getelementptr inbounds [1025 x i8], ptr %14, i64 0, i64 0
  %31 = load ptr, ptr %9, align 8, !tbaa !14
  %32 = call i32 @PEM_def_callback(ptr noundef %30, i32 noundef 1024, i32 noundef 0, ptr noundef %31)
  store i32 %32, ptr %12, align 4, !tbaa !10
  br label %33

33:                                               ; preds = %29, %24
  %34 = load i32, ptr %12, align 4, !tbaa !10
  %35 = icmp slt i32 %34, 0
  br i1 %35, label %39, label %36

36:                                               ; preds = %33
  %37 = load i32, ptr %12, align 4, !tbaa !10
  %38 = icmp sgt i32 %37, 1024
  br i1 %38, label %39, label %41

39:                                               ; preds = %36, %33
  call void @ERR_new()
  call void @ERR_set_debug(ptr noundef @.str, i32 noundef 186, ptr noundef @__func__.d2i_PKCS8PrivateKey_bio)
  call void (i32, i32, ptr, ...) @ERR_set_error(i32 noundef 9, i32 noundef 104, ptr noundef null)
  %40 = load ptr, ptr %11, align 8, !tbaa !21
  call void @X509_SIG_free(ptr noundef %40)
  store ptr null, ptr %5, align 8
  store i32 1, ptr %15, align 4
  br label %70

41:                                               ; preds = %36
  %42 = load ptr, ptr %11, align 8, !tbaa !21
  %43 = getelementptr inbounds [1025 x i8], ptr %14, i64 0, i64 0
  %44 = load i32, ptr %12, align 4, !tbaa !10
  %45 = call ptr @PKCS8_decrypt(ptr noundef %42, ptr noundef %43, i32 noundef %44)
  store ptr %45, ptr %10, align 8, !tbaa !19
  %46 = load ptr, ptr %11, align 8, !tbaa !21
  call void @X509_SIG_free(ptr noundef %46)
  %47 = getelementptr inbounds [1025 x i8], ptr %14, i64 0, i64 0
  %48 = load i32, ptr %12, align 4, !tbaa !10
  %49 = sext i32 %48 to i64
  call void @OPENSSL_cleanse(ptr noundef %47, i64 noundef %49)
  %50 = load ptr, ptr %10, align 8, !tbaa !19
  %51 = icmp eq ptr %50, null
  br i1 %51, label %52, label %53

52:                                               ; preds = %41
  store ptr null, ptr %5, align 8
  store i32 1, ptr %15, align 4
  br label %70

53:                                               ; preds = %41
  %54 = load ptr, ptr %10, align 8, !tbaa !19
  %55 = call ptr @EVP_PKCS82PKEY(ptr noundef %54)
  store ptr %55, ptr %13, align 8, !tbaa !8
  %56 = load ptr, ptr %10, align 8, !tbaa !19
  call void @PKCS8_PRIV_KEY_INFO_free(ptr noundef %56)
  %57 = load ptr, ptr %13, align 8, !tbaa !8
  %58 = icmp ne ptr %57, null
  br i1 %58, label %60, label %59

59:                                               ; preds = %53
  store ptr null, ptr %5, align 8
  store i32 1, ptr %15, align 4
  br label %70

60:                                               ; preds = %53
  %61 = load ptr, ptr %7, align 8, !tbaa !23
  %62 = icmp ne ptr %61, null
  br i1 %62, label %63, label %68

63:                                               ; preds = %60
  %64 = load ptr, ptr %7, align 8, !tbaa !23
  %65 = load ptr, ptr %64, align 8, !tbaa !8
  call void @EVP_PKEY_free(ptr noundef %65)
  %66 = load ptr, ptr %13, align 8, !tbaa !8
  %67 = load ptr, ptr %7, align 8, !tbaa !23
  store ptr %66, ptr %67, align 8, !tbaa !8
  br label %68

68:                                               ; preds = %63, %60
  %69 = load ptr, ptr %13, align 8, !tbaa !8
  store ptr %69, ptr %5, align 8
  store i32 1, ptr %15, align 4
  br label %70

70:                                               ; preds = %68, %59, %52, %39, %20
  call void @llvm.lifetime.end.p0(i64 1025, ptr %14) #4
  call void @llvm.lifetime.end.p0(i64 8, ptr %13) #4
  call void @llvm.lifetime.end.p0(i64 4, ptr %12) #4
  call void @llvm.lifetime.end.p0(i64 8, ptr %11) #4
  call void @llvm.lifetime.end.p0(i64 8, ptr %10) #4
  %71 = load ptr, ptr %5, align 8
  ret ptr %71
}