; Function Attrs: nounwind uwtable
define ptr @d2i_PKCS8PrivateKey_bio(ptr noundef %0, ptr noundef captures(address_is_null) %1, ptr noundef readonly captures(address_is_null) %2, ptr noundef %3) local_unnamed_addr #0 {
  %5 = alloca [1025 x i8], align 16
  call void @llvm.lifetime.start.p0(i64 1025, ptr nonnull %5) #4
  %6 = tail call ptr @d2i_PKCS8_bio(ptr noundef %0, ptr noundef null) #4
  %7 = icmp eq ptr %6, null
  br i1 %7, label %24, label %8

8:                                                ; preds = %4
  %.not = icmp eq ptr %2, null
  br i1 %.not, label %11, label %9

9:                                                ; preds = %8
  %10 = call i32 %2(ptr noundef nonnull %5, i32 noundef 1024, i32 noundef 0, ptr noundef %3) #4
  br label %13

11:                                               ; preds = %8
  %12 = call i32 @PEM_def_callback(ptr noundef nonnull %5, i32 noundef 1024, i32 noundef 0, ptr noundef %3) #4
  br label %13

13:                                               ; preds = %11, %9
  %.023 = phi i32 [ %10, %9 ], [ %12, %11 ]
  %or.cond = icmp ugt i32 %.023, 1024
  br i1 %or.cond, label %14, label %15

14:                                               ; preds = %13
  call void @ERR_new() #4
  call void @ERR_set_debug(ptr noundef nonnull @.str, i32 noundef 186, ptr noundef nonnull @__func__.d2i_PKCS8PrivateKey_bio) #4
  call void (i32, i32, ptr, ...) @ERR_set_error(i32 noundef 9, i32 noundef 104, ptr noundef null) #4
  call void @X509_SIG_free(ptr noundef nonnull %6) #4
  br label %24

15:                                               ; preds = %13
  %16 = call ptr @PKCS8_decrypt(ptr noundef nonnull %6, ptr noundef nonnull %5, i32 noundef %.023) #4
  call void @X509_SIG_free(ptr noundef nonnull %6) #4
  %17 = zext nneg i32 %.023 to i64
  call void @OPENSSL_cleanse(ptr noundef nonnull %5, i64 noundef %17) #4
  %18 = icmp eq ptr %16, null
  br i1 %18, label %24, label %19

19:                                               ; preds = %15
  %20 = call ptr @EVP_PKCS82PKEY(ptr noundef nonnull %16) #4
  call void @PKCS8_PRIV_KEY_INFO_free(ptr noundef nonnull %16) #4
  %.not29 = icmp eq ptr %20, null
  br i1 %.not29, label %24, label %21

21:                                               ; preds = %19
  %.not30 = icmp eq ptr %1, null
  br i1 %.not30, label %24, label %22

22:                                               ; preds = %21
  %23 = load ptr, ptr %1, align 8, !tbaa !3
  call void @EVP_PKEY_free(ptr noundef %23) #4
  store ptr %20, ptr %1, align 8, !tbaa !3
  br label %24

24:                                               ; preds = %21, %22, %19, %15, %4, %14
  %.0 = phi ptr [ null, %14 ], [ null, %4 ], [ null, %15 ], [ null, %19 ], [ %20, %22 ], [ %20, %21 ]
  call void @llvm.lifetime.end.p0(i64 1025, ptr nonnull %5) #4
  ret ptr %.0
}